(dp0
S'filterUpV'
p1
I250
sS'upper'
p2
I18
sS'lower'
p3
I0
sS'filterDown'
p4
I52
sS'filterUpS'
p5
I255
sS'dilate'
p6
I1
sS'smooth'
p7
I1
sS'filterDownS'
p8
I21
sS'prevX'
p9
I241
sS'length'
p10
F275.77164466275354
sS'prevY'
p11
I378
sS'filterDownV'
p12
I20
sS'direction'
p13
(lp14
I291
aS'Right'
p15
asS'erode'
p16
I1
sS'noCnt'
p17
I0
sS'filterUp'
p18
I255
s.
